#include <math.h>
#include <stdio.h>
#include <stdlib.h>
#include <string.h>

int ss(int n);

int main()
{
    int n,i=0,a,b;
    scanf("%d",&n);
    if(n<5)
    printf("empty");
    else  
    {
        for(i=2;i<(n-1);i++)
        {
            a=ss(i);
            if(a==2)
            printf("%d %d\n",i,i+2);
        }      
    }
    return 0;
}

int ss(int n)
{
      int i=2,k=0,j=0;
      for(i=2;i<=(n/2);i++)
      {
          if((n%i)==0)
          {
              k++;
              break;
          }
      }
      if(k==0)
      j++;
      k=0;
      for(i=2;i<=(n+2/2);i++)
      {
          if(((n+2)%i)==0)
          {
              k++;
              break;
          }
      }
      if(k==0)
      j++;
      return j;    
}
